SF:/home/user/scoutly/src/config.rs
FN:124,_RNCNCNvMs_NtCs2JPVPr0rmMD_7scoutly6configNtB8_6Config13default_pathss_00Ba_
FN:61,_RNCNvMNtCs2JPVPr0rmMD_7scoutly6configNtB4_12ConfigFormat9from_path0B6_
FN:62,_RNCNvMNtCs2JPVPr0rmMD_7scoutly6configNtB4_12ConfigFormat9from_paths_0B6_
FN:117,_RNCNvMs_NtCs2JPVPr0rmMD_7scoutly6configNtB6_6Config13default_paths0B8_
FN:124,_RNCNvMs_NtCs2JPVPr0rmMD_7scoutly6configNtB6_6Config13default_pathss_0B8_
FN:167,_RNCNvMs_NtCs2JPVPr0rmMD_7scoutly6configNtB6_6Config14merge_with_cli0B8_
FN:169,_RNCNvMs_NtCs2JPVPr0rmMD_7scoutly6configNtB6_6Config14merge_with_clis_0B8_
FN:84,_RNCNvMs_NtCs2JPVPr0rmMD_7scoutly6configNtB6_6Config9from_file0B8_
FN:91,_RNCNvMs_NtCs2JPVPr0rmMD_7scoutly6configNtB6_6Config9from_files0_0B8_
FN:93,_RNCNvMs_NtCs2JPVPr0rmMD_7scoutly6configNtB6_6Config9from_files1_0B8_
FN:95,_RNCNvMs_NtCs2JPVPr0rmMD_7scoutly6configNtB6_6Config9from_files2_0B8_
FN:87,_RNCNvMs_NtCs2JPVPr0rmMD_7scoutly6configNtB6_6Config9from_files_0B8_
FN:71,_RNvMNtCs2JPVPr0rmMD_7scoutly6configNtB2_12ConfigFormat10extensions
FN:59,_RNvMNtCs2JPVPr0rmMD_7scoutly6configNtB2_12ConfigFormat9from_path
FN:103,_RNvMs_NtCs2JPVPr0rmMD_7scoutly6configNtB4_6Config13default_paths
FN:151,_RNvMs_NtCs2JPVPr0rmMD_7scoutly6configNtB4_6Config14merge_with_cli
FN:140,_RNvMs_NtCs2JPVPr0rmMD_7scoutly6configNtB4_6Config18from_default_paths
FN:82,_RNvMs_NtCs2JPVPr0rmMD_7scoutly6configNtB4_6Config9from_file
FN:320,_RNvNtNtCscKribofPTlq_7scoutly6config5testss_19test_partial_config
FN:234,_RNvNtNtCscKribofPTlq_7scoutly6config5testss_21test_load_json_config
FN:264,_RNvNtNtCscKribofPTlq_7scoutly6config5testss_21test_load_toml_config
FN:292,_RNvNtNtCscKribofPTlq_7scoutly6config5testss_21test_load_yaml_config
FN:387,_RNvNtNtCscKribofPTlq_7scoutly6config5testss_23test_unsupported_format
FN:342,_RNvNtNtCscKribofPTlq_7scoutly6config5testss_24test_invalid_json_config
FN:356,_RNvNtNtCscKribofPTlq_7scoutly6config5testss_24test_invalid_toml_config
FN:370,_RNvNtNtCscKribofPTlq_7scoutly6config5testss_24test_invalid_yaml_config
FN:473,_RNvNtNtCscKribofPTlq_7scoutly6config5testss_25test_default_paths_exists
FN:213,_RNvNtNtCscKribofPTlq_7scoutly6config5testss_28test_config_format_from_path
FN:399,_RNvNtNtCscKribofPTlq_7scoutly6config5testss_28test_merge_with_cli_defaults
FN:504,_RNvNtNtCscKribofPTlq_7scoutly6config5testss_28test_yaml_with_yml_extension
FN:433,_RNvNtNtCscKribofPTlq_7scoutly6config5testss_29test_merge_with_cli_overrides
FN:496,_RNvNtNtCscKribofPTlq_7scoutly6config5testss_33test_from_default_paths_no_config
FN:539,_RNCNCNvNtNtCscKribofPTlq_7scoutly6config5testss_39test_default_paths_with_xdg_config_home00B9_
FN:597,_RNCNCNvNtNtCscKribofPTlq_7scoutly6config5testss_42test_default_paths_without_xdg_config_home00B9_
FN:568,_RNCNCNvNtNtCscKribofPTlq_7scoutly6config5testss_45test_default_paths_with_empty_xdg_config_home00B9_
FN:481,_RNCNvNtNtCscKribofPTlq_7scoutly6config5testss_25test_default_paths_exists0B7_
FN:491,_RNCNvNtNtCscKribofPTlq_7scoutly6config5testss_25test_default_paths_existss0_0B7_
FN:486,_RNCNvNtNtCscKribofPTlq_7scoutly6config5testss_25test_default_paths_existss_0B7_
FN:677,_RNCNvNtNtCscKribofPTlq_7scoutly6config5testss_38test_from_default_paths_priority_order0B7_
FN:524,_RNCNvNtNtCscKribofPTlq_7scoutly6config5testss_39test_default_paths_with_xdg_config_home0B7_
FN:580,_RNCNvNtNtCscKribofPTlq_7scoutly6config5testss_42test_default_paths_without_xdg_config_home0B7_
FN:551,_RNCNvNtNtCscKribofPTlq_7scoutly6config5testss_45test_default_paths_with_empty_xdg_config_home0B7_
FN:772,_RNCNvNtNtCscKribofPTlq_7scoutly6config5testss_45test_from_default_paths_checks_all_extensions0B7_
FN:633,_RNCNvNtNtCscKribofPTlq_7scoutly6config5testss_47test_from_default_paths_finds_config_dir_config0B7_
FN:603,_RNCNvNtNtCscKribofPTlq_7scoutly6config5testss_48test_from_default_paths_finds_current_dir_config0B7_
FN:719,_RNCNvNtNtCscKribofPTlq_7scoutly6config5testss_55test_from_default_paths_returns_error_on_invalid_config0B7_
FN:743,_RNCNvNtNtCscKribofPTlq_7scoutly6config5testss_58test_from_default_paths_returns_none_when_no_config_exists0B7_
FN:71,_RNvMNtCscKribofPTlq_7scoutly6configNtB2_12ConfigFormat10extensions
FN:59,_RNvMNtCscKribofPTlq_7scoutly6configNtB2_12ConfigFormat9from_path
FN:103,_RNvMs_NtCscKribofPTlq_7scoutly6configNtB4_6Config13default_paths
FN:151,_RNvMs_NtCscKribofPTlq_7scoutly6configNtB4_6Config14merge_with_cli
FN:140,_RNvMs_NtCscKribofPTlq_7scoutly6configNtB4_6Config18from_default_paths
FN:82,_RNvMs_NtCscKribofPTlq_7scoutly6configNtB4_6Config9from_file
FN:124,_RNCNCNvMs_NtCscKribofPTlq_7scoutly6configNtB8_6Config13default_pathss_00Ba_
FN:61,_RNCNvMNtCscKribofPTlq_7scoutly6configNtB4_12ConfigFormat9from_path0B6_
FN:62,_RNCNvMNtCscKribofPTlq_7scoutly6configNtB4_12ConfigFormat9from_paths_0B6_
FN:117,_RNCNvMs_NtCscKribofPTlq_7scoutly6configNtB6_6Config13default_paths0B8_
FN:124,_RNCNvMs_NtCscKribofPTlq_7scoutly6configNtB6_6Config13default_pathss_0B8_
FN:167,_RNCNvMs_NtCscKribofPTlq_7scoutly6configNtB6_6Config14merge_with_cli0B8_
FN:169,_RNCNvMs_NtCscKribofPTlq_7scoutly6configNtB6_6Config14merge_with_clis_0B8_
FN:84,_RNCNvMs_NtCscKribofPTlq_7scoutly6configNtB6_6Config9from_file0B8_
FN:91,_RNCNvMs_NtCscKribofPTlq_7scoutly6configNtB6_6Config9from_files0_0B8_
FN:93,_RNCNvMs_NtCscKribofPTlq_7scoutly6configNtB6_6Config9from_files1_0B8_
FN:95,_RNCNvMs_NtCscKribofPTlq_7scoutly6configNtB6_6Config9from_files2_0B8_
FN:87,_RNCNvMs_NtCscKribofPTlq_7scoutly6configNtB6_6Config9from_files_0B8_
FNDA:17,_RNCNCNvMs_NtCs2JPVPr0rmMD_7scoutly6configNtB8_6Config13default_pathss_00Ba_
FNDA:7,_RNCNvMNtCs2JPVPr0rmMD_7scoutly6configNtB4_12ConfigFormat9from_path0B6_
FNDA:7,_RNCNvMNtCs2JPVPr0rmMD_7scoutly6configNtB4_12ConfigFormat9from_paths_0B6_
FNDA:0,_RNCNvMs_NtCs2JPVPr0rmMD_7scoutly6configNtB6_6Config13default_paths0B8_
FNDA:17,_RNCNvMs_NtCs2JPVPr0rmMD_7scoutly6configNtB6_6Config13default_pathss_0B8_
FNDA:3,_RNCNvMs_NtCs2JPVPr0rmMD_7scoutly6configNtB6_6Config14merge_with_cli0B8_
FNDA:3,_RNCNvMs_NtCs2JPVPr0rmMD_7scoutly6configNtB6_6Config14merge_with_clis_0B8_
FNDA:1,_RNCNvMs_NtCs2JPVPr0rmMD_7scoutly6configNtB6_6Config9from_file0B8_
FNDA:1,_RNCNvMs_NtCs2JPVPr0rmMD_7scoutly6configNtB6_6Config9from_files0_0B8_
FNDA:1,_RNCNvMs_NtCs2JPVPr0rmMD_7scoutly6configNtB6_6Config9from_files1_0B8_
FNDA:1,_RNCNvMs_NtCs2JPVPr0rmMD_7scoutly6configNtB6_6Config9from_files2_0B8_
FNDA:1,_RNCNvMs_NtCs2JPVPr0rmMD_7scoutly6configNtB6_6Config9from_files_0B8_
FNDA:102,_RNvMNtCs2JPVPr0rmMD_7scoutly6configNtB2_12ConfigFormat10extensions
FNDA:7,_RNvMNtCs2JPVPr0rmMD_7scoutly6configNtB2_12ConfigFormat9from_path
FNDA:17,_RNvMs_NtCs2JPVPr0rmMD_7scoutly6configNtB4_6Config13default_paths
FNDA:3,_RNvMs_NtCs2JPVPr0rmMD_7scoutly6configNtB4_6Config14merge_with_cli
FNDA:17,_RNvMs_NtCs2JPVPr0rmMD_7scoutly6configNtB4_6Config18from_default_paths
FNDA:8,_RNvMs_NtCs2JPVPr0rmMD_7scoutly6configNtB4_6Config9from_file
FNDA:1,_RNvNtNtCscKribofPTlq_7scoutly6config5testss_19test_partial_config
FNDA:1,_RNvNtNtCscKribofPTlq_7scoutly6config5testss_21test_load_json_config
FNDA:1,_RNvNtNtCscKribofPTlq_7scoutly6config5testss_21test_load_toml_config
FNDA:1,_RNvNtNtCscKribofPTlq_7scoutly6config5testss_21test_load_yaml_config
FNDA:1,_RNvNtNtCscKribofPTlq_7scoutly6config5testss_23test_unsupported_format
FNDA:1,_RNvNtNtCscKribofPTlq_7scoutly6config5testss_24test_invalid_json_config
FNDA:1,_RNvNtNtCscKribofPTlq_7scoutly6config5testss_24test_invalid_toml_config
FNDA:1,_RNvNtNtCscKribofPTlq_7scoutly6config5testss_24test_invalid_yaml_config
FNDA:1,_RNvNtNtCscKribofPTlq_7scoutly6config5testss_25test_default_paths_exists
FNDA:1,_RNvNtNtCscKribofPTlq_7scoutly6config5testss_28test_config_format_from_path
FNDA:1,_RNvNtNtCscKribofPTlq_7scoutly6config5testss_28test_merge_with_cli_defaults
FNDA:1,_RNvNtNtCscKribofPTlq_7scoutly6config5testss_28test_yaml_with_yml_extension
FNDA:1,_RNvNtNtCscKribofPTlq_7scoutly6config5testss_29test_merge_with_cli_overrides
FNDA:1,_RNvNtNtCscKribofPTlq_7scoutly6config5testss_33test_from_default_paths_no_config
FNDA:5,_RNCNCNvNtNtCscKribofPTlq_7scoutly6config5testss_39test_default_paths_with_xdg_config_home00B9_
FNDA:1,_RNCNCNvNtNtCscKribofPTlq_7scoutly6config5testss_42test_default_paths_without_xdg_config_home00B9_
FNDA:1,_RNCNCNvNtNtCscKribofPTlq_7scoutly6config5testss_45test_default_paths_with_empty_xdg_config_home00B9_
FNDA:1,_RNCNvNtNtCscKribofPTlq_7scoutly6config5testss_25test_default_paths_exists0B7_
FNDA:3,_RNCNvNtNtCscKribofPTlq_7scoutly6config5testss_25test_default_paths_existss0_0B7_
FNDA:2,_RNCNvNtNtCscKribofPTlq_7scoutly6config5testss_25test_default_paths_existss_0B7_
FNDA:1,_RNCNvNtNtCscKribofPTlq_7scoutly6config5testss_38test_from_default_paths_priority_order0B7_
FNDA:1,_RNCNvNtNtCscKribofPTlq_7scoutly6config5testss_39test_default_paths_with_xdg_config_home0B7_
FNDA:1,_RNCNvNtNtCscKribofPTlq_7scoutly6config5testss_42test_default_paths_without_xdg_config_home0B7_
FNDA:1,_RNCNvNtNtCscKribofPTlq_7scoutly6config5testss_45test_default_paths_with_empty_xdg_config_home0B7_
FNDA:1,_RNCNvNtNtCscKribofPTlq_7scoutly6config5testss_45test_from_default_paths_checks_all_extensions0B7_
FNDA:1,_RNCNvNtNtCscKribofPTlq_7scoutly6config5testss_47test_from_default_paths_finds_config_dir_config0B7_
FNDA:1,_RNCNvNtNtCscKribofPTlq_7scoutly6config5testss_48test_from_default_paths_finds_current_dir_config0B7_
FNDA:1,_RNCNvNtNtCscKribofPTlq_7scoutly6config5testss_55test_from_default_paths_returns_error_on_invalid_config0B7_
FNDA:1,_RNCNvNtNtCscKribofPTlq_7scoutly6config5testss_58test_from_default_paths_returns_none_when_no_config_exists0B7_
FNDA:66,_RNvMNtCscKribofPTlq_7scoutly6configNtB2_12ConfigFormat10extensions
FNDA:20,_RNvMNtCscKribofPTlq_7scoutly6configNtB2_12ConfigFormat9from_path
FNDA:11,_RNvMs_NtCscKribofPTlq_7scoutly6configNtB4_6Config13default_paths
FNDA:2,_RNvMs_NtCscKribofPTlq_7scoutly6configNtB4_6Config14merge_with_cli
FNDA:7,_RNvMs_NtCscKribofPTlq_7scoutly6configNtB4_6Config18from_default_paths
FNDA:15,_RNvMs_NtCscKribofPTlq_7scoutly6configNtB4_6Config9from_file
FNDA:7,_RNCNCNvMs_NtCscKribofPTlq_7scoutly6configNtB8_6Config13default_pathss_00Ba_
FNDA:20,_RNCNvMNtCscKribofPTlq_7scoutly6configNtB4_12ConfigFormat9from_path0B6_
FNDA:20,_RNCNvMNtCscKribofPTlq_7scoutly6configNtB4_12ConfigFormat9from_paths_0B6_
FNDA:5,_RNCNvMs_NtCscKribofPTlq_7scoutly6configNtB6_6Config13default_paths0B8_
FNDA:7,_RNCNvMs_NtCscKribofPTlq_7scoutly6configNtB6_6Config13default_pathss_0B8_
FNDA:0,_RNCNvMs_NtCscKribofPTlq_7scoutly6configNtB6_6Config14merge_with_cli0B8_
FNDA:1,_RNCNvMs_NtCscKribofPTlq_7scoutly6configNtB6_6Config14merge_with_clis_0B8_
FNDA:0,_RNCNvMs_NtCscKribofPTlq_7scoutly6configNtB6_6Config9from_file0B8_
FNDA:2,_RNCNvMs_NtCscKribofPTlq_7scoutly6configNtB6_6Config9from_files0_0B8_
FNDA:1,_RNCNvMs_NtCscKribofPTlq_7scoutly6configNtB6_6Config9from_files1_0B8_
FNDA:1,_RNCNvMs_NtCscKribofPTlq_7scoutly6configNtB6_6Config9from_files2_0B8_
FNDA:1,_RNCNvMs_NtCscKribofPTlq_7scoutly6configNtB6_6Config9from_files_0B8_
FNF:47
FNH:47
DA:59,27
DA:60,27
DA:61,27
DA:62,27
DA:63,27
DA:64,16
DA:65,11
DA:66,3
DA:67,27
DA:68,27
DA:71,168
DA:72,168
DA:73,56
DA:74,56
DA:75,56
DA:77,168
DA:82,23
DA:83,23
DA:84,23
DA:86,22
DA:87,22
DA:89,20
DA:90,10
DA:91,10
DA:92,4
DA:93,4
DA:94,6
DA:95,6
DA:98,13
DA:99,23
DA:103,28
DA:104,28
DA:107,112
DA:108,112
DA:109,112
DA:110,112
DA:115,28
DA:116,28
DA:117,28
DA:118,5
DA:119,1
DA:121,4
DA:123,5
DA:124,28
DA:126,28
DA:127,28
DA:128,112
DA:129,112
DA:130,112
DA:131,112
DA:133,0
DA:135,28
DA:136,28
DA:140,24
DA:141,152
DA:142,152
DA:143,7
DA:144,145
DA:146,17
DA:147,24
DA:151,5
DA:153,5
DA:154,5
DA:155,3
DA:157,2
DA:159,5
DA:160,3
DA:162,2
DA:164,5
DA:165,1
DA:167,4
DA:169,5
DA:170,5
DA:171,1
DA:173,4
DA:175,5
DA:176,3
DA:178,2
DA:180,5
DA:181,1
DA:183,4
DA:185,5
DA:186,0
DA:188,5
DA:190,5
DA:191,5
DA:192,1
DA:194,4
DA:196,5
DA:197,4
DA:199,1
DA:201,5
DA:203,5
DA:213,1
DA:214,1
DA:215,1
DA:218,1
DA:219,1
DA:222,1
DA:223,1
DA:226,1
DA:227,1
DA:230,1
DA:231,1
DA:234,1
DA:235,1
DA:236,1
DA:237,1
DA:238,1
DA:239,1
DA:240,1
DA:241,1
DA:242,1
DA:243,1
DA:244,1
DA:245,1
DA:247,1
DA:248,1
DA:249,1
DA:251,1
DA:252,1
DA:253,1
DA:254,1
DA:255,1
DA:256,1
DA:257,1
DA:258,1
DA:260,1
DA:261,1
DA:264,1
DA:265,1
DA:266,1
DA:267,1
DA:268,1
DA:269,1
DA:270,1
DA:271,1
DA:272,1
DA:273,1
DA:275,1
DA:276,1
DA:277,1
DA:279,1
DA:280,1
DA:281,1
DA:282,1
DA:283,1
DA:284,1
DA:285,1
DA:286,1
DA:288,1
DA:289,1
DA:292,1
DA:293,1
DA:294,1
DA:295,1
DA:296,1
DA:297,1
DA:298,1
DA:299,1
DA:300,1
DA:301,1
DA:303,1
DA:304,1
DA:305,1
DA:307,1
DA:308,1
DA:309,1
DA:310,1
DA:311,1
DA:312,1
DA:313,1
DA:314,1
DA:316,1
DA:317,1
DA:320,1
DA:321,1
DA:322,1
DA:323,1
DA:324,1
DA:325,1
DA:326,1
DA:328,1
DA:329,1
DA:330,1
DA:332,1
DA:333,1
DA:334,1
DA:335,1
DA:336,1
DA:338,1
DA:339,1
DA:342,1
DA:343,1
DA:345,1
DA:346,1
DA:347,1
DA:349,1
DA:350,1
DA:352,1
DA:353,1
DA:356,1
DA:357,1
DA:359,1
DA:360,1
DA:361,1
DA:363,1
DA:364,1
DA:366,1
DA:367,1
DA:370,1
DA:371,1
DA:372,1
DA:373,1
DA:374,1
DA:376,1
DA:377,1
DA:378,1
DA:380,1
DA:381,1
DA:383,1
DA:384,1
DA:387,1
DA:388,1
DA:389,1
DA:390,1
DA:392,1
DA:393,1
DA:395,1
DA:396,1
DA:399,1
DA:400,1
DA:401,1
DA:402,1
DA:403,1
DA:404,1
DA:405,1
DA:406,1
DA:408,1
DA:409,1
DA:410,1
DA:411,1
DA:412,1
DA:413,1
DA:414,1
DA:415,1
DA:416,1
DA:417,1
DA:418,1
DA:419,1
DA:420,1
DA:421,1
DA:422,1
DA:424,1
DA:425,1
DA:426,1
DA:427,1
DA:428,1
DA:429,1
DA:430,1
DA:433,1
DA:434,1
DA:435,1
DA:436,1
DA:437,1
DA:438,1
DA:439,1
DA:440,1
DA:441,1
DA:443,1
DA:444,1
DA:445,1
DA:446,1
DA:447,1
DA:448,1
DA:449,1
DA:450,1
DA:451,1
DA:452,1
DA:453,1
DA:454,1
DA:455,1
DA:456,1
DA:457,1
DA:459,1
DA:460,1
DA:461,1
DA:462,1
DA:463,1
DA:464,1
DA:465,1
DA:466,1
DA:467,1
DA:468,1
DA:469,1
DA:470,1
DA:473,1
DA:474,1
DA:475,1
DA:478,1
DA:479,1
DA:480,1
DA:481,1
DA:483,1
DA:484,1
DA:485,1
DA:486,2
DA:488,1
DA:489,1
DA:490,1
DA:491,3
DA:493,1
DA:496,1
DA:499,1
DA:500,1
DA:501,1
DA:504,1
DA:505,1
DA:506,1
DA:507,1
DA:508,1
DA:510,1
DA:511,1
DA:512,1
DA:514,1
DA:515,1
DA:516,1
DA:518,1
DA:519,1
DA:524,1
DA:528,1
DA:529,1
DA:530,1
DA:531,1
DA:533,1
DA:536,1
DA:537,1
DA:538,1
DA:539,5
DA:543,1
DA:544,1
DA:545,1
DA:551,1
DA:555,1
DA:556,1
DA:557,1
DA:559,1
DA:562,1
DA:565,1
DA:566,1
DA:567,1
DA:568,1
DA:572,1
DA:573,1
DA:574,1
DA:580,1
DA:584,1
DA:585,1
DA:586,1
DA:588,1
DA:591,1
DA:594,1
DA:595,1
DA:596,1
DA:597,1
DA:603,1
DA:608,1
DA:609,1
DA:610,1
DA:613,1
DA:614,1
DA:615,1
DA:618,1
DA:619,1
DA:620,1
DA:621,1
DA:623,1
DA:624,1
DA:625,1
DA:628,1
DA:633,1
DA:638,1
DA:639,1
DA:640,1
DA:643,1
DA:644,1
DA:645,1
DA:648,1
DA:649,1
DA:650,1
DA:653,1
DA:654,1
DA:655,1
DA:656,1
DA:659,1
DA:660,1
DA:661,1
DA:662,1
DA:664,1
DA:665,1
DA:666,1
DA:669,1
DA:670,1
DA:671,1
DA:672,1
DA:677,1
DA:682,1
DA:683,1
DA:684,1
DA:687,1
DA:688,1
DA:689,1
DA:690,1
DA:691,1
DA:692,1
DA:695,1
DA:696,1
DA:698,1
DA:699,1
DA:702,1
DA:703,1
DA:704,1
DA:705,1
DA:707,1
DA:708,1
DA:711,1
DA:712,1
DA:713,1
DA:714,1
DA:719,1
DA:724,1
DA:725,1
DA:726,1
DA:729,1
DA:730,1
DA:731,1
DA:734,1
DA:735,1
DA:738,1
DA:743,1
DA:748,1
DA:749,1
DA:750,1
DA:753,1
DA:754,1
DA:755,1
DA:756,1
DA:759,1
DA:760,1
DA:761,1
DA:764,1
DA:765,1
DA:766,1
DA:767,1
DA:772,1
DA:777,1
DA:778,1
DA:779,1
DA:782,1
DA:783,1
DA:784,1
DA:785,1
DA:788,1
DA:789,1
DA:790,1
DA:791,1
DA:793,1
DA:794,1
DA:795,1
DA:798,1
BRF:0
BRH:0
LF:488
LH:486
end_of_record
SF:/home/user/scoutly/src/crawler.rs
FN:276,_RNvMNtCs2JPVPr0rmMD_7scoutly7crawlerNtB2_7Crawler10fetch_page
FN:405,_RNvMNtCs2JPVPr0rmMD_7scoutly7crawlerNtB2_7Crawler13extract_links
FN:343,_RNvMNtCs2JPVPr0rmMD_7scoutly7crawlerNtB2_7Crawler13extract_title
FN:141,_RNvMNtCs2JPVPr0rmMD_7scoutly7crawlerNtB2_7Crawler13normalize_url
FN:456,_RNvMNtCs2JPVPr0rmMD_7scoutly7crawlerNtB2_7Crawler14extract_images
FN:358,_RNvMNtCs2JPVPr0rmMD_7scoutly7crawlerNtB2_7Crawler15extract_h1_tags
FN:155,_RNvMNtCs2JPVPr0rmMD_7scoutly7crawlerNtB2_7Crawler15is_external_url
FN:130,_RNvMNtCs2JPVPr0rmMD_7scoutly7crawlerNtB2_7Crawler19enable_progress_bar
FN:365,_RNvMNtCs2JPVPr0rmMD_7scoutly7crawlerNtB2_7Crawler23extract_open_graph_tags
FN:350,_RNvMNtCs2JPVPr0rmMD_7scoutly7crawlerNtB2_7Crawler24extract_meta_description
FN:88,_RNvMNtCs2JPVPr0rmMD_7scoutly7crawlerNtB2_7Crawler3new
FN:159,_RNvMNtCs2JPVPr0rmMD_7scoutly7crawlerNtB2_7Crawler5crawl
FN:289,_RNCNCNvMNtCs2JPVPr0rmMD_7scoutly7crawlerNtB6_7Crawler10fetch_page00B8_
FN:290,_RNCNCNvMNtCs2JPVPr0rmMD_7scoutly7crawlerNtB6_7Crawler10fetch_page0s_0B8_
FN:213,_RNCNCNvMNtCs2JPVPr0rmMD_7scoutly7crawlerNtB6_7Crawler5crawl00B8_
FN:276,_RNCNvMNtCs2JPVPr0rmMD_7scoutly7crawlerNtB4_7Crawler10fetch_page0B6_
FN:347,_RNCNvMNtCs2JPVPr0rmMD_7scoutly7crawlerNtB4_7Crawler13extract_title0B6_
FN:463,_RNCNvMNtCs2JPVPr0rmMD_7scoutly7crawlerNtB4_7Crawler14extract_images0B6_
FN:361,_RNCNvMNtCs2JPVPr0rmMD_7scoutly7crawlerNtB4_7Crawler15extract_h1_tags0B6_
FN:370,_RNCNvMNtCs2JPVPr0rmMD_7scoutly7crawlerNtB4_7Crawler23extract_open_graph_tags0B6_
FN:375,_RNCNvMNtCs2JPVPr0rmMD_7scoutly7crawlerNtB4_7Crawler23extract_open_graph_tagss0_0B6_
FN:376,_RNCNvMNtCs2JPVPr0rmMD_7scoutly7crawlerNtB4_7Crawler23extract_open_graph_tagss1_0B6_
FN:380,_RNCNvMNtCs2JPVPr0rmMD_7scoutly7crawlerNtB4_7Crawler23extract_open_graph_tagss2_0B6_
FN:381,_RNCNvMNtCs2JPVPr0rmMD_7scoutly7crawlerNtB4_7Crawler23extract_open_graph_tagss3_0B6_
FN:385,_RNCNvMNtCs2JPVPr0rmMD_7scoutly7crawlerNtB4_7Crawler23extract_open_graph_tagss4_0B6_
FN:386,_RNCNvMNtCs2JPVPr0rmMD_7scoutly7crawlerNtB4_7Crawler23extract_open_graph_tagss5_0B6_
FN:390,_RNCNvMNtCs2JPVPr0rmMD_7scoutly7crawlerNtB4_7Crawler23extract_open_graph_tagss6_0B6_
FN:391,_RNCNvMNtCs2JPVPr0rmMD_7scoutly7crawlerNtB4_7Crawler23extract_open_graph_tagss7_0B6_
FN:395,_RNCNvMNtCs2JPVPr0rmMD_7scoutly7crawlerNtB4_7Crawler23extract_open_graph_tagss8_0B6_
FN:396,_RNCNvMNtCs2JPVPr0rmMD_7scoutly7crawlerNtB4_7Crawler23extract_open_graph_tagss9_0B6_
FN:371,_RNCNvMNtCs2JPVPr0rmMD_7scoutly7crawlerNtB4_7Crawler23extract_open_graph_tagss_0B6_
FN:400,_RNCNvMNtCs2JPVPr0rmMD_7scoutly7crawlerNtB4_7Crawler23extract_open_graph_tagssa_0B6_
FN:401,_RNCNvMNtCs2JPVPr0rmMD_7scoutly7crawlerNtB4_7Crawler23extract_open_graph_tagssb_0B6_
FN:354,_RNCNvMNtCs2JPVPr0rmMD_7scoutly7crawlerNtB4_7Crawler24extract_meta_description0B6_
FN:355,_RNCNvMNtCs2JPVPr0rmMD_7scoutly7crawlerNtB4_7Crawler24extract_meta_descriptions_0B6_
FN:106,_RNCNvMNtCs2JPVPr0rmMD_7scoutly7crawlerNtB4_7Crawler3new0B6_
FN:159,_RNCNvMNtCs2JPVPr0rmMD_7scoutly7crawlerNtB4_7Crawler5crawl0B6_
FN:34,_RNCNvNtCs2JPVPr0rmMD_7scoutly7crawler11H1_SELECTOR0B5_
FN:36,_RNCNvNtCs2JPVPr0rmMD_7scoutly7crawler12IMG_SELECTOR0B5_
FN:29,_RNCNvNtCs2JPVPr0rmMD_7scoutly7crawler14TITLE_SELECTOR0B5_
FN:49,_RNCNvNtCs2JPVPr0rmMD_7scoutly7crawler15OG_URL_SELECTOR0B5_
FN:52,_RNCNvNtCs2JPVPr0rmMD_7scoutly7crawler16OG_TYPE_SELECTOR0B5_
FN:46,_RNCNvNtCs2JPVPr0rmMD_7scoutly7crawler17OG_IMAGE_SELECTOR0B5_
FN:39,_RNCNvNtCs2JPVPr0rmMD_7scoutly7crawler17OG_TITLE_SELECTOR0B5_
FN:30,_RNCNvNtCs2JPVPr0rmMD_7scoutly7crawler18META_DESC_SELECTOR0B5_
FN:58,_RNCNvNtCs2JPVPr0rmMD_7scoutly7crawler18OG_LOCALE_SELECTOR0B5_
FN:55,_RNCNvNtCs2JPVPr0rmMD_7scoutly7crawler21OG_SITE_NAME_SELECTOR0B5_
FN:63,_RNCNvNtCs2JPVPr0rmMD_7scoutly7crawler22LINK_ELEMENTS_SELECTOR0B5_
FN:42,_RNCNvNtCs2JPVPr0rmMD_7scoutly7crawler23OG_DESCRIPTION_SELECTOR0B5_
FN:276,_RNvMNtCscKribofPTlq_7scoutly7crawlerNtB2_7Crawler10fetch_page
FN:405,_RNvMNtCscKribofPTlq_7scoutly7crawlerNtB2_7Crawler13extract_links
FN:343,_RNvMNtCscKribofPTlq_7scoutly7crawlerNtB2_7Crawler13extract_title
FN:141,_RNvMNtCscKribofPTlq_7scoutly7crawlerNtB2_7Crawler13normalize_url
FN:456,_RNvMNtCscKribofPTlq_7scoutly7crawlerNtB2_7Crawler14extract_images
FN:358,_RNvMNtCscKribofPTlq_7scoutly7crawlerNtB2_7Crawler15extract_h1_tags
FN:155,_RNvMNtCscKribofPTlq_7scoutly7crawlerNtB2_7Crawler15is_external_url
FN:130,_RNvMNtCscKribofPTlq_7scoutly7crawlerNtB2_7Crawler19enable_progress_bar
FN:365,_RNvMNtCscKribofPTlq_7scoutly7crawlerNtB2_7Crawler23extract_open_graph_tags
FN:350,_RNvMNtCscKribofPTlq_7scoutly7crawlerNtB2_7Crawler24extract_meta_description
FN:88,_RNvMNtCscKribofPTlq_7scoutly7crawlerNtB2_7Crawler3new
FN:159,_RNvMNtCscKribofPTlq_7scoutly7crawlerNtB2_7Crawler5crawl
FN:289,_RNCNCNvMNtCscKribofPTlq_7scoutly7crawlerNtB6_7Crawler10fetch_page00B8_
FN:290,_RNCNCNvMNtCscKribofPTlq_7scoutly7crawlerNtB6_7Crawler10fetch_page0s_0B8_
FN:213,_RNCNCNvMNtCscKribofPTlq_7scoutly7crawlerNtB6_7Crawler5crawl00B8_
FN:276,_RNCNvMNtCscKribofPTlq_7scoutly7crawlerNtB4_7Crawler10fetch_page0B6_
FN:347,_RNCNvMNtCscKribofPTlq_7scoutly7crawlerNtB4_7Crawler13extract_title0B6_
FN:463,_RNCNvMNtCscKribofPTlq_7scoutly7crawlerNtB4_7Crawler14extract_images0B6_
FN:361,_RNCNvMNtCscKribofPTlq_7scoutly7crawlerNtB4_7Crawler15extract_h1_tags0B6_
FN:370,_RNCNvMNtCscKribofPTlq_7scoutly7crawlerNtB4_7Crawler23extract_open_graph_tags0B6_
FN:375,_RNCNvMNtCscKribofPTlq_7scoutly7crawlerNtB4_7Crawler23extract_open_graph_tagss0_0B6_
FN:376,_RNCNvMNtCscKribofPTlq_7scoutly7crawlerNtB4_7Crawler23extract_open_graph_tagss1_0B6_
FN:380,_RNCNvMNtCscKribofPTlq_7scoutly7crawlerNtB4_7Crawler23extract_open_graph_tagss2_0B6_
FN:381,_RNCNvMNtCscKribofPTlq_7scoutly7crawlerNtB4_7Crawler23extract_open_graph_tagss3_0B6_
FN:385,_RNCNvMNtCscKribofPTlq_7scoutly7crawlerNtB4_7Crawler23extract_open_graph_tagss4_0B6_
FN:386,_RNCNvMNtCscKribofPTlq_7scoutly7crawlerNtB4_7Crawler23extract_open_graph_tagss5_0B6_
FN:390,_RNCNvMNtCscKribofPTlq_7scoutly7crawlerNtB4_7Crawler23extract_open_graph_tagss6_0B6_
FN:391,_RNCNvMNtCscKribofPTlq_7scoutly7crawlerNtB4_7Crawler23extract_open_graph_tagss7_0B6_
FN:395,_RNCNvMNtCscKribofPTlq_7scoutly7crawlerNtB4_7Crawler23extract_open_graph_tagss8_0B6_
FN:396,_RNCNvMNtCscKribofPTlq_7scoutly7crawlerNtB4_7Crawler23extract_open_graph_tagss9_0B6_
FN:371,_RNCNvMNtCscKribofPTlq_7scoutly7crawlerNtB4_7Crawler23extract_open_graph_tagss_0B6_
FN:400,_RNCNvMNtCscKribofPTlq_7scoutly7crawlerNtB4_7Crawler23extract_open_graph_tagssa_0B6_
FN:401,_RNCNvMNtCscKribofPTlq_7scoutly7crawlerNtB4_7Crawler23extract_open_graph_tagssb_0B6_
FN:354,_RNCNvMNtCscKribofPTlq_7scoutly7crawlerNtB4_7Crawler24extract_meta_description0B6_
FN:355,_RNCNvMNtCscKribofPTlq_7scoutly7crawlerNtB4_7Crawler24extract_meta_descriptions_0B6_
FN:106,_RNCNvMNtCscKribofPTlq_7scoutly7crawlerNtB4_7Crawler3new0B6_
FN:159,_RNCNvMNtCscKribofPTlq_7scoutly7crawlerNtB4_7Crawler5crawl0B6_
FN:34,_RNCNvNtCscKribofPTlq_7scoutly7crawler11H1_SELECTOR0B5_
FN:36,_RNCNvNtCscKribofPTlq_7scoutly7crawler12IMG_SELECTOR0B5_
FN:29,_RNCNvNtCscKribofPTlq_7scoutly7crawler14TITLE_SELECTOR0B5_
FN:49,_RNCNvNtCscKribofPTlq_7scoutly7crawler15OG_URL_SELECTOR0B5_
FN:52,_RNCNvNtCscKribofPTlq_7scoutly7crawler16OG_TYPE_SELECTOR0B5_
FN:46,_RNCNvNtCscKribofPTlq_7scoutly7crawler17OG_IMAGE_SELECTOR0B5_
FN:39,_RNCNvNtCscKribofPTlq_7scoutly7crawler17OG_TITLE_SELECTOR0B5_
FN:30,_RNCNvNtCscKribofPTlq_7scoutly7crawler18META_DESC_SELECTOR0B5_
FN:58,_RNCNvNtCscKribofPTlq_7scoutly7crawler18OG_LOCALE_SELECTOR0B5_
FN:55,_RNCNvNtCscKribofPTlq_7scoutly7crawler21OG_SITE_NAME_SELECTOR0B5_
FN:63,_RNCNvNtCscKribofPTlq_7scoutly7crawler22LINK_ELEMENTS_SELECTOR0B5_
FN:42,_RNCNvNtCscKribofPTlq_7scoutly7crawler23OG_DESCRIPTION_SELECTOR0B5_
FNDA:771,_RNvMNtCs2JPVPr0rmMD_7scoutly7crawlerNtB2_7Crawler10fetch_page
FNDA:768,_RNvMNtCs2JPVPr0rmMD_7scoutly7crawlerNtB2_7Crawler13extract_links
FNDA:768,_RNvMNtCs2JPVPr0rmMD_7scoutly7crawlerNtB2_7Crawler13extract_title
FNDA:2119,_RNvMNtCs2JPVPr0rmMD_7scoutly7crawlerNtB2_7Crawler13normalize_url
FNDA:768,_RNvMNtCs2JPVPr0rmMD_7scoutly7crawlerNtB2_7Crawler14extract_images
FNDA:768,_RNvMNtCs2JPVPr0rmMD_7scoutly7crawlerNtB2_7Crawler15extract_h1_tags
FNDA:1918,_RNvMNtCs2JPVPr0rmMD_7scoutly7crawlerNtB2_7Crawler15is_external_url
FNDA:13,_RNvMNtCs2JPVPr0rmMD_7scoutly7crawlerNtB2_7Crawler19enable_progress_bar
FNDA:768,_RNvMNtCs2JPVPr0rmMD_7scoutly7crawlerNtB2_7Crawler23extract_open_graph_tags
FNDA:768,_RNvMNtCs2JPVPr0rmMD_7scoutly7crawlerNtB2_7Crawler24extract_meta_description
FNDA:51,_RNvMNtCs2JPVPr0rmMD_7scoutly7crawlerNtB2_7Crawler3new
FNDA:49,_RNvMNtCs2JPVPr0rmMD_7scoutly7crawlerNtB2_7Crawler5crawl
FNDA:580,_RNCNCNvMNtCs2JPVPr0rmMD_7scoutly7crawlerNtB6_7Crawler10fetch_page00B8_
FNDA:580,_RNCNCNvMNtCs2JPVPr0rmMD_7scoutly7crawlerNtB6_7Crawler10fetch_page0s_0B8_
FNDA:771,_RNCNCNvMNtCs2JPVPr0rmMD_7scoutly7crawlerNtB6_7Crawler5crawl00B8_
FNDA:771,_RNCNvMNtCs2JPVPr0rmMD_7scoutly7crawlerNtB4_7Crawler10fetch_page0B6_
FNDA:350,_RNCNvMNtCs2JPVPr0rmMD_7scoutly7crawlerNtB4_7Crawler13extract_title0B6_
FNDA:66,_RNCNvMNtCs2JPVPr0rmMD_7scoutly7crawlerNtB4_7Crawler14extract_images0B6_
FNDA:433,_RNCNvMNtCs2JPVPr0rmMD_7scoutly7crawlerNtB4_7Crawler15extract_h1_tags0B6_
FNDA:17,_RNCNvMNtCs2JPVPr0rmMD_7scoutly7crawlerNtB4_7Crawler23extract_open_graph_tags0B6_
FNDA:17,_RNCNvMNtCs2JPVPr0rmMD_7scoutly7crawlerNtB4_7Crawler23extract_open_graph_tagss0_0B6_
FNDA:17,_RNCNvMNtCs2JPVPr0rmMD_7scoutly7crawlerNtB4_7Crawler23extract_open_graph_tagss1_0B6_
FNDA:17,_RNCNvMNtCs2JPVPr0rmMD_7scoutly7crawlerNtB4_7Crawler23extract_open_graph_tagss2_0B6_
FNDA:17,_RNCNvMNtCs2JPVPr0rmMD_7scoutly7crawlerNtB4_7Crawler23extract_open_graph_tagss3_0B6_
FNDA:17,_RNCNvMNtCs2JPVPr0rmMD_7scoutly7crawlerNtB4_7Crawler23extract_open_graph_tagss4_0B6_
FNDA:17,_RNCNvMNtCs2JPVPr0rmMD_7scoutly7crawlerNtB4_7Crawler23extract_open_graph_tagss5_0B6_
FNDA:17,_RNCNvMNtCs2JPVPr0rmMD_7scoutly7crawlerNtB4_7Crawler23extract_open_graph_tagss6_0B6_
FNDA:17,_RNCNvMNtCs2JPVPr0rmMD_7scoutly7crawlerNtB4_7Crawler23extract_open_graph_tagss7_0B6_
FNDA:17,_RNCNvMNtCs2JPVPr0rmMD_7scoutly7crawlerNtB4_7Crawler23extract_open_graph_tagss8_0B6_
FNDA:17,_RNCNvMNtCs2JPVPr0rmMD_7scoutly7crawlerNtB4_7Crawler23extract_open_graph_tagss9_0B6_
FNDA:17,_RNCNvMNtCs2JPVPr0rmMD_7scoutly7crawlerNtB4_7Crawler23extract_open_graph_tagss_0B6_
FNDA:17,_RNCNvMNtCs2JPVPr0rmMD_7scoutly7crawlerNtB4_7Crawler23extract_open_graph_tagssa_0B6_
FNDA:17,_RNCNvMNtCs2JPVPr0rmMD_7scoutly7crawlerNtB4_7Crawler23extract_open_graph_tagssb_0B6_
FNDA:358,_RNCNvMNtCs2JPVPr0rmMD_7scoutly7crawlerNtB4_7Crawler24extract_meta_description0B6_
FNDA:358,_RNCNvMNtCs2JPVPr0rmMD_7scoutly7crawlerNtB4_7Crawler24extract_meta_descriptions_0B6_
FNDA:2,_RNCNvMNtCs2JPVPr0rmMD_7scoutly7crawlerNtB4_7Crawler3new0B6_
FNDA:49,_RNCNvMNtCs2JPVPr0rmMD_7scoutly7crawlerNtB4_7Crawler5crawl0B6_
FNDA:5,_RNCNvNtCs2JPVPr0rmMD_7scoutly7crawler11H1_SELECTOR0B5_
FNDA:5,_RNCNvNtCs2JPVPr0rmMD_7scoutly7crawler12IMG_SELECTOR0B5_
FNDA:5,_RNCNvNtCs2JPVPr0rmMD_7scoutly7crawler14TITLE_SELECTOR0B5_
FNDA:5,_RNCNvNtCs2JPVPr0rmMD_7scoutly7crawler15OG_URL_SELECTOR0B5_
FNDA:5,_RNCNvNtCs2JPVPr0rmMD_7scoutly7crawler16OG_TYPE_SELECTOR0B5_
FNDA:5,_RNCNvNtCs2JPVPr0rmMD_7scoutly7crawler17OG_IMAGE_SELECTOR0B5_
FNDA:5,_RNCNvNtCs2JPVPr0rmMD_7scoutly7crawler17OG_TITLE_SELECTOR0B5_
FNDA:5,_RNCNvNtCs2JPVPr0rmMD_7scoutly7crawler18META_DESC_SELECTOR0B5_
FNDA:5,_RNCNvNtCs2JPVPr0rmMD_7scoutly7crawler18OG_LOCALE_SELECTOR0B5_
FNDA:5,_RNCNvNtCs2JPVPr0rmMD_7scoutly7crawler21OG_SITE_NAME_SELECTOR0B5_
FNDA:5,_RNCNvNtCs2JPVPr0rmMD_7scoutly7crawler22LINK_ELEMENTS_SELECTOR0B5_
FNDA:5,_RNCNvNtCs2JPVPr0rmMD_7scoutly7crawler23OG_DESCRIPTION_SELECTOR0B5_
FNDA:0,_RNvMNtCscKribofPTlq_7scoutly7crawlerNtB2_7Crawler10fetch_page
FNDA:0,_RNvMNtCscKribofPTlq_7scoutly7crawlerNtB2_7Crawler13extract_links
FNDA:0,_RNvMNtCscKribofPTlq_7scoutly7crawlerNtB2_7Crawler13extract_title
FNDA:0,_RNvMNtCscKribofPTlq_7scoutly7crawlerNtB2_7Crawler13normalize_url
FNDA:0,_RNvMNtCscKribofPTlq_7scoutly7crawlerNtB2_7Crawler14extract_images
FNDA:0,_RNvMNtCscKribofPTlq_7scoutly7crawlerNtB2_7Crawler15extract_h1_tags
FNDA:0,_RNvMNtCscKribofPTlq_7scoutly7crawlerNtB2_7Crawler15is_external_url
FNDA:0,_RNvMNtCscKribofPTlq_7scoutly7crawlerNtB2_7Crawler19enable_progress_bar
FNDA:0,_RNvMNtCscKribofPTlq_7scoutly7crawlerNtB2_7Crawler23extract_open_graph_tags
FNDA:0,_RNvMNtCscKribofPTlq_7scoutly7crawlerNtB2_7Crawler24extract_meta_description
FNDA:0,_RNvMNtCscKribofPTlq_7scoutly7crawlerNtB2_7Crawler3new
FNDA:0,_RNvMNtCscKribofPTlq_7scoutly7crawlerNtB2_7Crawler5crawl
FNDA:0,_RNCNCNvMNtCscKribofPTlq_7scoutly7crawlerNtB6_7Crawler10fetch_page00B8_
FNDA:0,_RNCNCNvMNtCscKribofPTlq_7scoutly7crawlerNtB6_7Crawler10fetch_page0s_0B8_
FNDA:0,_RNCNCNvMNtCscKribofPTlq_7scoutly7crawlerNtB6_7Crawler5crawl00B8_
FNDA:0,_RNCNvMNtCscKribofPTlq_7scoutly7crawlerNtB4_7Crawler10fetch_page0B6_
FNDA:0,_RNCNvMNtCscKribofPTlq_7scoutly7crawlerNtB4_7Crawler13extract_title0B6_
FNDA:0,_RNCNvMNtCscKribofPTlq_7scoutly7crawlerNtB4_7Crawler14extract_images0B6_
FNDA:0,_RNCNvMNtCscKribofPTlq_7scoutly7crawlerNtB4_7Crawler15extract_h1_tags0B6_
FNDA:0,_RNCNvMNtCscKribofPTlq_7scoutly7crawlerNtB4_7Crawler23extract_open_graph_tags0B6_
FNDA:0,_RNCNvMNtCscKribofPTlq_7scoutly7crawlerNtB4_7Crawler23extract_open_graph_tagss0_0B6_
FNDA:0,_RNCNvMNtCscKribofPTlq_7scoutly7crawlerNtB4_7Crawler23extract_open_graph_tagss1_0B6_
FNDA:0,_RNCNvMNtCscKribofPTlq_7scoutly7crawlerNtB4_7Crawler23extract_open_graph_tagss2_0B6_
FNDA:0,_RNCNvMNtCscKribofPTlq_7scoutly7crawlerNtB4_7Crawler23extract_open_graph_tagss3_0B6_
FNDA:0,_RNCNvMNtCscKribofPTlq_7scoutly7crawlerNtB4_7Crawler23extract_open_graph_tagss4_0B6_
FNDA:0,_RNCNvMNtCscKribofPTlq_7scoutly7crawlerNtB4_7Crawler23extract_open_graph_tagss5_0B6_
FNDA:0,_RNCNvMNtCscKribofPTlq_7scoutly7crawlerNtB4_7Crawler23extract_open_graph_tagss6_0B6_
FNDA:0,_RNCNvMNtCscKribofPTlq_7scoutly7crawlerNtB4_7Crawler23extract_open_graph_tagss7_0B6_
FNDA:0,_RNCNvMNtCscKribofPTlq_7scoutly7crawlerNtB4_7Crawler23extract_open_graph_tagss8_0B6_
FNDA:0,_RNCNvMNtCscKribofPTlq_7scoutly7crawlerNtB4_7Crawler23extract_open_graph_tagss9_0B6_
FNDA:0,_RNCNvMNtCscKribofPTlq_7scoutly7crawlerNtB4_7Crawler23extract_open_graph_tagss_0B6_
FNDA:0,_RNCNvMNtCscKribofPTlq_7scoutly7crawlerNtB4_7Crawler23extract_open_graph_tagssa_0B6_
FNDA:0,_RNCNvMNtCscKribofPTlq_7scoutly7crawlerNtB4_7Crawler23extract_open_graph_tagssb_0B6_
FNDA:0,_RNCNvMNtCscKribofPTlq_7scoutly7crawlerNtB4_7Crawler24extract_meta_description0B6_
FNDA:0,_RNCNvMNtCscKribofPTlq_7scoutly7crawlerNtB4_7Crawler24extract_meta_descriptions_0B6_
FNDA:0,_RNCNvMNtCscKribofPTlq_7scoutly7crawlerNtB4_7Crawler3new0B6_
FNDA:0,_RNCNvMNtCscKribofPTlq_7scoutly7crawlerNtB4_7Crawler5crawl0B6_
FNDA:0,_RNCNvNtCscKribofPTlq_7scoutly7crawler11H1_SELECTOR0B5_
FNDA:0,_RNCNvNtCscKribofPTlq_7scoutly7crawler12IMG_SELECTOR0B5_
FNDA:0,_RNCNvNtCscKribofPTlq_7scoutly7crawler14TITLE_SELECTOR0B5_
FNDA:0,_RNCNvNtCscKribofPTlq_7scoutly7crawler15OG_URL_SELECTOR0B5_
FNDA:0,_RNCNvNtCscKribofPTlq_7scoutly7crawler16OG_TYPE_SELECTOR0B5_
FNDA:0,_RNCNvNtCscKribofPTlq_7scoutly7crawler17OG_IMAGE_SELECTOR0B5_
FNDA:0,_RNCNvNtCscKribofPTlq_7scoutly7crawler17OG_TITLE_SELECTOR0B5_
FNDA:0,_RNCNvNtCscKribofPTlq_7scoutly7crawler18META_DESC_SELECTOR0B5_
FNDA:0,_RNCNvNtCscKribofPTlq_7scoutly7crawler18OG_LOCALE_SELECTOR0B5_
FNDA:0,_RNCNvNtCscKribofPTlq_7scoutly7crawler21OG_SITE_NAME_SELECTOR0B5_
FNDA:0,_RNCNvNtCscKribofPTlq_7scoutly7crawler22LINK_ELEMENTS_SELECTOR0B5_
FNDA:0,_RNCNvNtCscKribofPTlq_7scoutly7crawler23OG_DESCRIPTION_SELECTOR0B5_
FNF:49
FNH:49
DA:29,5
DA:30,5
DA:31,5
DA:32,5
DA:34,5
DA:36,5
DA:39,5
DA:40,5
DA:41,5
DA:42,5
DA:43,5
DA:44,5
DA:45,5
DA:46,5
DA:47,5
DA:48,5
DA:49,5
DA:50,5
DA:51,5
DA:52,5
DA:53,5
DA:54,5
DA:55,5
DA:56,5
DA:57,5
DA:58,5
DA:59,5
DA:60,5
DA:63,5
DA:64,5
DA:65,5
DA:67,5
DA:68,5
DA:88,51
DA:89,51
DA:92,51
DA:93,51
DA:94,2
DA:95,2
DA:96,2
DA:97,2
DA:98,2
DA:102,49
DA:103,49
DA:106,49
DA:107,2
DA:108,2
DA:109,2
DA:112,49
DA:113,49
DA:114,49
DA:115,49
DA:116,49
DA:117,49
DA:118,49
DA:119,49
DA:120,49
DA:121,49
DA:122,49
DA:123,49
DA:124,49
DA:125,49
DA:127,51
DA:130,13
DA:131,13
DA:132,13
DA:133,13
DA:134,13
DA:135,13
DA:137,13
DA:138,13
DA:141,2119
DA:142,2119
DA:143,227
DA:146,1892
DA:147,68
DA:149,1824
DA:152,2119
DA:155,1918
DA:156,1918
DA:157,1918
DA:159,49
DA:161,49
DA:162,4
DA:164,0
DA:165,49
DA:168,49
DA:169,13
DA:170,36
DA:172,773
DA:174,740
DA:175,878
DA:176,843
DA:179,843
DA:180,24
DA:181,819
DA:184,819
DA:185,9
DA:186,9
DA:188,3
DA:189,3
DA:190,3
DA:191,816
DA:194,816
DA:195,45
DA:196,771
DA:198,771
DA:199,771
DA:202,771
DA:203,660
DA:204,111
DA:207,740
DA:208,16
DA:209,724
DA:212,724
DA:213,771
DA:214,724
DA:215,724
DA:216,724
DA:219,724
DA:222,1495
DA:223,771
DA:224,768
DA:226,768
DA:227,2042
DA:228,1517
DA:229,1276
DA:230,1276
DA:231,1134
DA:232,1134
DA:233,241
DA:235,243
DA:237,768
DA:239,3
DA:240,3
DA:242,3
DA:243,3
DA:244,3
DA:245,3
DA:246,3
DA:247,3
DA:248,3
DA:249,3
DA:250,3
DA:251,3
DA:252,3
DA:253,3
DA:254,3
DA:255,3
DA:256,3
DA:263,724
DA:264,45
DA:265,679
DA:269,49
DA:270,13
DA:271,36
DA:273,49
DA:274,49
DA:276,771
DA:278,771
DA:279,15
DA:280,756
DA:282,771
DA:283,768
DA:286,768
DA:287,768
DA:288,768
DA:289,768
DA:290,768
DA:293,768
DA:294,580
DA:295,580
DA:296,1
DA:299,0
DA:301,579
DA:302,188
DA:304,768
DA:305,768
DA:308,768
DA:311,768
DA:314,768
DA:317,768
DA:320,768
DA:323,768
DA:326,768
DA:328,768
DA:329,768
DA:330,768
DA:331,768
DA:332,768
DA:333,768
DA:334,768
DA:335,768
DA:336,768
DA:337,768
DA:338,768
DA:339,768
DA:340,768
DA:341,771
DA:343,768
DA:344,768
DA:345,768
DA:346,768
DA:347,768
DA:348,768
DA:350,768
DA:351,768
DA:352,768
DA:353,768
DA:354,768
DA:355,768
DA:356,768
DA:358,768
DA:359,768
DA:360,768
DA:361,768
DA:362,768
DA:363,768
DA:365,768
DA:367,768
DA:368,768
DA:369,768
DA:370,768
DA:371,768
DA:372,768
DA:373,768
DA:374,768
DA:375,768
DA:376,768
DA:377,768
DA:378,768
DA:379,768
DA:380,768
DA:381,768
DA:382,768
DA:383,768
DA:384,768
DA:385,768
DA:386,768
DA:387,768
DA:388,768
DA:389,768
DA:390,768
DA:391,768
DA:392,768
DA:393,768
DA:394,768
DA:395,768
DA:396,768
DA:397,768
DA:398,768
DA:399,768
DA:400,768
DA:401,768
DA:403,768
DA:405,768
DA:406,768
DA:409,1918
DA:410,1918
DA:413,1918
DA:414,1918
DA:415,231
DA:416,195
DA:419,1918
DA:420,1918
DA:422,1918
DA:423,1918
DA:426,1918
DA:427,1918
DA:428,231
DA:429,51
DA:430,51
DA:432,180
DA:433,162
DA:434,72
DA:435,72
DA:437,90
DA:438,72
DA:439,36
DA:440,0
DA:443,1918
DA:444,1918
DA:445,1918
DA:446,1918
DA:447,1918
DA:448,1918
DA:449,1918
DA:450,0
DA:453,768
DA:454,768
DA:456,768
DA:457,768
DA:459,768
DA:460,98
DA:461,98
DA:463,98
DA:464,98
DA:465,98
DA:466,98
DA:467,98
DA:468,0
DA:471,768
DA:472,768
BRF:0
BRH:0
LF:328
LH:323
end_of_record
SF:/home/user/scoutly/src/http_client.rs
FN:12,_RNvNtCs2JPVPr0rmMD_7scoutly11http_client17build_http_client
FN:12,_RNvNtCscKribofPTlq_7scoutly11http_client17build_http_client
FNDA:71,_RNvNtCs2JPVPr0rmMD_7scoutly11http_client17build_http_client
FNDA:0,_RNvNtCscKribofPTlq_7scoutly11http_client17build_http_client
FNF:1
FNH:1
DA:12,71
DA:13,71
DA:14,71
DA:15,71
DA:16,71
DA:18,71
DA:19,71
DA:20,71
DA:21,71
DA:22,71
DA:23,71
DA:24,71
DA:25,71
DA:26,71
DA:28,71
DA:29,71
BRF:0
BRH:0
LF:16
LH:16
end_of_record
SF:/home/user/scoutly/src/lib.rs
FN:96,_RNCNCNCNvCs2JPVPr0rmMD_7scoutly3run000B7_
FN:96,_RNCNCNvCs2JPVPr0rmMD_7scoutly3run00B5_
FN:21,_RNCNvCs2JPVPr0rmMD_7scoutly3run0B3_
FN:21,_RNvCs2JPVPr0rmMD_7scoutly3run
FN:21,_RNvCscKribofPTlq_7scoutly3run
FN:96,_RNCNCNCNvCscKribofPTlq_7scoutly3run000B7_
FN:96,_RNCNCNvCscKribofPTlq_7scoutly3run00B5_
FN:21,_RNCNvCscKribofPTlq_7scoutly3run0B3_
FNDA:352,_RNCNCNCNvCs2JPVPr0rmMD_7scoutly3run000B7_
FNDA:90,_RNCNCNvCs2JPVPr0rmMD_7scoutly3run00B5_
FNDA:24,_RNCNvCs2JPVPr0rmMD_7scoutly3run0B3_
FNDA:24,_RNvCs2JPVPr0rmMD_7scoutly3run
FNDA:0,_RNvCscKribofPTlq_7scoutly3run
FNDA:0,_RNCNCNCNvCscKribofPTlq_7scoutly3run000B7_
FNDA:0,_RNCNCNvCscKribofPTlq_7scoutly3run00B5_
FNDA:0,_RNCNvCscKribofPTlq_7scoutly3run0B3_
FNF:4
FNH:4
DA:21,24
DA:23,24
DA:25,7
DA:26,7
DA:27,1
DA:28,1
DA:29,1
DA:30,1
DA:31,1
DA:32,6
DA:33,7
DA:36,17
DA:37,1
DA:38,1
DA:39,1
DA:40,1
DA:42,16
DA:47,19
DA:48,3
DA:49,16
DA:51,19
DA:52,19
DA:53,19
DA:54,19
DA:55,19
DA:57,19
DA:58,19
DA:61,19
DA:62,2
DA:63,17
DA:65,17
DA:66,17
DA:67,17
DA:68,17
DA:71,17
DA:72,17
DA:73,17
DA:74,17
DA:75,17
DA:76,17
DA:77,17
DA:78,17
DA:79,17
DA:80,17
DA:82,17
DA:83,5
DA:84,12
DA:87,17
DA:88,13
DA:89,13
DA:91,17
DA:93,17
DA:94,17
DA:95,17
DA:96,352
DA:97,17
DA:99,17
DA:100,17
DA:101,17
DA:102,17
DA:103,17
DA:106,17
DA:107,5
DA:108,5
DA:109,5
DA:110,5
DA:111,5
DA:112,12
DA:114,17
DA:117,17
DA:118,5
DA:119,12
DA:121,17
DA:124,17
DA:125,13
DA:126,13
DA:127,13
DA:129,17
DA:130,17
DA:131,17
DA:133,17
DA:134,5
DA:135,5
DA:136,12
DA:139,17
DA:140,5
DA:141,12
DA:143,17
DA:145,17
DA:146,5
DA:147,5
DA:148,12
DA:151,17
DA:154,17
DA:155,17
DA:156,4
DA:157,4
DA:159,13
DA:160,13
DA:161,13
DA:165,17
DA:166,3
DA:167,14
DA:169,17
DA:170,24
BRF:0
BRH:0
LF:108
LH:108
end_of_record
SF:/home/user/scoutly/src/link_checker.rs
FN:124,_RNCNvMs_NtCs2JPVPr0rmMD_7scoutly12link_checkerNtB6_11LinkChecker10check_link0B8_
FN:44,_RNCNvMs_NtCs2JPVPr0rmMD_7scoutly12link_checkerNtB6_11LinkChecker15check_all_links0B8_
FN:124,_RNvMs_NtCs2JPVPr0rmMD_7scoutly12link_checkerNtB4_11LinkChecker10check_link
FN:40,_RNvMs_NtCs2JPVPr0rmMD_7scoutly12link_checkerNtB4_11LinkChecker15check_all_links
FN:28,_RNvMs_NtCs2JPVPr0rmMD_7scoutly12link_checkerNtB4_11LinkChecker19enable_progress_bar
FN:20,_RNvMs_NtCs2JPVPr0rmMD_7scoutly12link_checkerNtB4_11LinkChecker3new
FN:14,_RNvXNtCs2JPVPr0rmMD_7scoutly12link_checkerNtB2_11LinkCheckerNtNtCs35vC3OypZpH_4core7default7Default7default
FN:14,_RNvXNtCscKribofPTlq_7scoutly12link_checkerNtB2_11LinkCheckerNtNtCs35vC3OypZpH_4core7default7Default7default
FN:124,_RNCNvMs_NtCscKribofPTlq_7scoutly12link_checkerNtB6_11LinkChecker10check_link0B8_
FN:44,_RNCNvMs_NtCscKribofPTlq_7scoutly12link_checkerNtB6_11LinkChecker15check_all_links0B8_
FN:124,_RNvMs_NtCscKribofPTlq_7scoutly12link_checkerNtB4_11LinkChecker10check_link
FN:40,_RNvMs_NtCscKribofPTlq_7scoutly12link_checkerNtB4_11LinkChecker15check_all_links
FN:28,_RNvMs_NtCscKribofPTlq_7scoutly12link_checkerNtB4_11LinkChecker19enable_progress_bar
FN:20,_RNvMs_NtCscKribofPTlq_7scoutly12link_checkerNtB4_11LinkChecker3new
FNDA:489,_RNCNvMs_NtCs2JPVPr0rmMD_7scoutly12link_checkerNtB6_11LinkChecker10check_link0B8_
FNDA:20,_RNCNvMs_NtCs2JPVPr0rmMD_7scoutly12link_checkerNtB6_11LinkChecker15check_all_links0B8_
FNDA:489,_RNvMs_NtCs2JPVPr0rmMD_7scoutly12link_checkerNtB4_11LinkChecker10check_link
FNDA:20,_RNvMs_NtCs2JPVPr0rmMD_7scoutly12link_checkerNtB4_11LinkChecker15check_all_links
FNDA:13,_RNvMs_NtCs2JPVPr0rmMD_7scoutly12link_checkerNtB4_11LinkChecker19enable_progress_bar
FNDA:20,_RNvMs_NtCs2JPVPr0rmMD_7scoutly12link_checkerNtB4_11LinkChecker3new
FNDA:1,_RNvXNtCs2JPVPr0rmMD_7scoutly12link_checkerNtB2_11LinkCheckerNtNtCs35vC3OypZpH_4core7default7Default7default
FNDA:0,_RNvXNtCscKribofPTlq_7scoutly12link_checkerNtB2_11LinkCheckerNtNtCs35vC3OypZpH_4core7default7Default7default
FNDA:0,_RNCNvMs_NtCscKribofPTlq_7scoutly12link_checkerNtB6_11LinkChecker10check_link0B8_
FNDA:0,_RNCNvMs_NtCscKribofPTlq_7scoutly12link_checkerNtB6_11LinkChecker15check_all_links0B8_
FNDA:0,_RNvMs_NtCscKribofPTlq_7scoutly12link_checkerNtB4_11LinkChecker10check_link
FNDA:0,_RNvMs_NtCscKribofPTlq_7scoutly12link_checkerNtB4_11LinkChecker15check_all_links
FNDA:0,_RNvMs_NtCscKribofPTlq_7scoutly12link_checkerNtB4_11LinkChecker19enable_progress_bar
FNDA:0,_RNvMs_NtCscKribofPTlq_7scoutly12link_checkerNtB4_11LinkChecker3new
FNF:7
FNH:7
DA:14,1
DA:15,1
DA:16,1
DA:20,20
DA:21,20
DA:22,20
DA:23,20
DA:24,20
DA:25,20
DA:28,13
DA:29,13
DA:30,13
DA:31,13
DA:32,13
DA:33,13
DA:34,13
DA:36,13
DA:37,13
DA:38,13
DA:40,20
DA:41,20
DA:42,20
DA:43,20
DA:44,20
DA:46,20
DA:48,195
DA:49,586
DA:50,586
DA:51,586
DA:52,586
DA:53,586
DA:54,586
DA:58,20
DA:59,20
DA:61,509
DA:62,489
DA:63,489
DA:65,20
DA:68,20
DA:69,13
DA:70,13
DA:73,489
DA:74,20
DA:76,489
DA:77,1075
DA:78,586
DA:79,586
DA:81,586
DA:82,586
DA:85,586
DA:86,8
DA:87,8
DA:88,8
DA:89,8
DA:90,8
DA:91,8
DA:92,8
DA:93,8
DA:94,578
DA:97,586
DA:98,583
DA:99,60
DA:100,60
DA:101,60
DA:102,60
DA:103,60
DA:104,60
DA:105,526
DA:106,0
DA:108,0
DA:111,489
DA:112,259
DA:113,259
DA:117,20
DA:118,13
DA:119,13
DA:121,20
DA:122,20
DA:124,489
DA:126,489
DA:127,486
DA:128,486
DA:129,486
DA:132,486
DA:133,486
DA:135,486
DA:136,8
DA:138,478
DA:141,486
DA:143,3
DA:145,489
BRF:0
BRH:0
LF:93
LH:91
end_of_record
SF:/home/user/scoutly/src/main.rs
FN:8,_RNCNvCslkCEXd7Womy_7scoutly4main0B3_
FN:8,_RNvCslkCEXd7Womy_7scoutly4main
FN:8,_RNCNvCsirKRxHA4GUh_7scoutly4main0B3_
FN:8,_RNvCsirKRxHA4GUh_7scoutly4main
FNDA:0,_RNCNvCslkCEXd7Womy_7scoutly4main0B3_
FNDA:0,_RNvCslkCEXd7Womy_7scoutly4main
FNDA:16,_RNCNvCsirKRxHA4GUh_7scoutly4main0B3_
FNDA:16,_RNvCsirKRxHA4GUh_7scoutly4main
FNF:2
FNH:2
DA:8,16
DA:9,16
DA:11,16
DA:12,16
DA:13,16
DA:14,16
DA:15,16
DA:16,16
DA:17,16
BRF:0
BRH:0
LF:15
LH:13
end_of_record
SF:/home/user/scoutly/src/reporter.rs
FN:44,_RNCNCNvMNtCs2JPVPr0rmMD_7scoutly8reporterNtB6_8Reporter17calculate_summary00B8_
FN:44,_RNCNvMNtCs2JPVPr0rmMD_7scoutly8reporterNtB4_8Reporter17calculate_summary0B6_
FN:120,_RNCNvMNtCs2JPVPr0rmMD_7scoutly8reporterNtB4_8Reporter17print_text_report0B6_
FN:132,_RNCNvMNtCs2JPVPr0rmMD_7scoutly8reporterNtB4_8Reporter17print_text_reports0_0B6_
FN:141,_RNCNvMNtCs2JPVPr0rmMD_7scoutly8reporterNtB4_8Reporter17print_text_reports1_0B6_
FN:11,_RNvMNtCs2JPVPr0rmMD_7scoutly8reporterNtB2_8Reporter15generate_report
FN:196,_RNvMNtCs2JPVPr0rmMD_7scoutly8reporterNtB2_8Reporter16save_json_report
FN:23,_RNvMNtCs2JPVPr0rmMD_7scoutly8reporterNtB2_8Reporter17calculate_summary
FN:58,_RNvMNtCs2JPVPr0rmMD_7scoutly8reporterNtB2_8Reporter17print_text_report
FN:11,_RNvMNtCscKribofPTlq_7scoutly8reporterNtB2_8Reporter15generate_report
FN:196,_RNvMNtCscKribofPTlq_7scoutly8reporterNtB2_8Reporter16save_json_report
FN:23,_RNvMNtCscKribofPTlq_7scoutly8reporterNtB2_8Reporter17calculate_summary
FN:58,_RNvMNtCscKribofPTlq_7scoutly8reporterNtB2_8Reporter17print_text_report
FN:44,_RNCNCNvMNtCscKribofPTlq_7scoutly8reporterNtB6_8Reporter17calculate_summary00B8_
FN:44,_RNCNvMNtCscKribofPTlq_7scoutly8reporterNtB4_8Reporter17calculate_summary0B6_
FN:120,_RNCNvMNtCscKribofPTlq_7scoutly8reporterNtB4_8Reporter17print_text_report0B6_
FN:132,_RNCNvMNtCscKribofPTlq_7scoutly8reporterNtB4_8Reporter17print_text_reports0_0B6_
FN:141,_RNCNvMNtCscKribofPTlq_7scoutly8reporterNtB4_8Reporter17print_text_reports1_0B6_
FNDA:367,_RNCNCNvMNtCs2JPVPr0rmMD_7scoutly8reporterNtB6_8Reporter17calculate_summary00B8_
FNDA:369,_RNCNvMNtCs2JPVPr0rmMD_7scoutly8reporterNtB4_8Reporter17calculate_summary0B6_
FNDA:73,_RNCNvMNtCs2JPVPr0rmMD_7scoutly8reporterNtB4_8Reporter17print_text_report0B6_
FNDA:67,_RNCNvMNtCs2JPVPr0rmMD_7scoutly8reporterNtB4_8Reporter17print_text_reports0_0B6_
FNDA:1,_RNCNvMNtCs2JPVPr0rmMD_7scoutly8reporterNtB4_8Reporter17print_text_reports1_0B6_
FNDA:30,_RNvMNtCs2JPVPr0rmMD_7scoutly8reporterNtB2_8Reporter15generate_report
FNDA:4,_RNvMNtCs2JPVPr0rmMD_7scoutly8reporterNtB2_8Reporter16save_json_report
FNDA:30,_RNvMNtCs2JPVPr0rmMD_7scoutly8reporterNtB2_8Reporter17calculate_summary
FNDA:19,_RNvMNtCs2JPVPr0rmMD_7scoutly8reporterNtB2_8Reporter17print_text_report
FNDA:0,_RNvMNtCscKribofPTlq_7scoutly8reporterNtB2_8Reporter15generate_report
FNDA:0,_RNvMNtCscKribofPTlq_7scoutly8reporterNtB2_8Reporter16save_json_report
FNDA:0,_RNvMNtCscKribofPTlq_7scoutly8reporterNtB2_8Reporter17calculate_summary
FNDA:0,_RNvMNtCscKribofPTlq_7scoutly8reporterNtB2_8Reporter17print_text_report
FNDA:0,_RNCNCNvMNtCscKribofPTlq_7scoutly8reporterNtB6_8Reporter17calculate_summary00B8_
FNDA:0,_RNCNvMNtCscKribofPTlq_7scoutly8reporterNtB4_8Reporter17calculate_summary0B6_
FNDA:0,_RNCNvMNtCscKribofPTlq_7scoutly8reporterNtB4_8Reporter17print_text_report0B6_
FNDA:0,_RNCNvMNtCscKribofPTlq_7scoutly8reporterNtB4_8Reporter17print_text_reports0_0B6_
FNDA:0,_RNCNvMNtCscKribofPTlq_7scoutly8reporterNtB4_8Reporter17print_text_reports1_0B6_
FNF:9
FNH:9
DA:11,30
DA:12,30
DA:13,30
DA:15,30
DA:16,30
DA:17,30
DA:18,30
DA:19,30
DA:20,30
DA:21,30
DA:23,30
DA:24,30
DA:25,30
DA:26,30
DA:27,30
DA:28,30
DA:30,107
DA:31,107
DA:33,876
DA:34,769
DA:35,121
DA:36,205
DA:37,443
DA:41,107
DA:42,107
DA:43,107
DA:44,369
DA:45,107
DA:48,30
DA:49,30
DA:50,30
DA:51,30
DA:52,30
DA:53,30
DA:54,30
DA:55,30
DA:56,30
DA:58,19
DA:59,19
DA:60,19
DA:61,19
DA:62,19
DA:64,19
DA:65,19
DA:66,19
DA:69,19
DA:70,19
DA:71,19
DA:74,19
DA:77,19
DA:78,19
DA:79,19
DA:80,19
DA:82,19
DA:83,19
DA:84,19
DA:86,19
DA:87,19
DA:88,19
DA:89,13
DA:91,6
DA:94,19
DA:95,19
DA:96,19
DA:97,13
DA:99,6
DA:102,19
DA:103,19
DA:104,19
DA:105,14
DA:107,5
DA:110,19
DA:111,19
DA:112,19
DA:114,19
DA:117,19
DA:118,19
DA:119,19
DA:120,73
DA:121,19
DA:122,19
DA:124,19
DA:125,15
DA:126,83
DA:127,68
DA:128,68
DA:129,68
DA:130,68
DA:131,68
DA:132,68
DA:133,67
DA:134,65
DA:135,2
DA:136,1
DA:138,1
DA:140,67
DA:141,68
DA:143,68
DA:145,68
DA:146,29
DA:147,39
DA:150,68
DA:151,66
DA:152,66
DA:153,66
DA:154,66
DA:156,2
DA:157,2
DA:158,2
DA:159,2
DA:160,2
DA:161,1
DA:162,1
DA:163,2
DA:164,2
DA:165,2
DA:166,2
DA:167,1
DA:168,1
DA:169,2
DA:170,2
DA:171,2
DA:172,2
DA:173,1
DA:174,1
DA:175,2
DA:176,1
DA:177,1
DA:178,66
DA:180,68
DA:181,601
DA:182,533
DA:183,81
DA:184,142
DA:185,310
DA:187,533
DA:190,4
DA:192,19
DA:193,19
DA:194,19
DA:196,4
DA:197,4
DA:198,4
DA:199,4
DA:200,4
DA:201,4
DA:202,4
BRF:0
BRH:0
LF:152
LH:152
end_of_record
SF:/home/user/scoutly/src/robots.rs
FN:144,_RNvMs_NtCs2JPVPr0rmMD_7scoutly6robotsNtB4_9RobotsTxt10is_allowed
FN:165,_RNvMs_NtCs2JPVPr0rmMD_7scoutly6robotsNtB4_9RobotsTxt11check_rules
FN:185,_RNvMs_NtCs2JPVPr0rmMD_7scoutly6robotsNtB4_9RobotsTxt12path_matches
FN:262,_RNvMs_NtCs2JPVPr0rmMD_7scoutly6robotsNtB4_9RobotsTxt14get_domain_key
FN:253,_RNvMs_NtCs2JPVPr0rmMD_7scoutly6robotsNtB4_9RobotsTxt14get_robots_url
FN:28,_RNvMs_NtCs2JPVPr0rmMD_7scoutly6robotsNtB4_9RobotsTxt3new
FN:36,_RNvMs_NtCs2JPVPr0rmMD_7scoutly6robotsNtB4_9RobotsTxt5fetch
FN:77,_RNvMs_NtCs2JPVPr0rmMD_7scoutly6robotsNtB4_9RobotsTxt5parse
FN:22,_RNvXNtCs2JPVPr0rmMD_7scoutly6robotsNtB2_9RobotsTxtNtNtCs35vC3OypZpH_4core7default7Default7default
FN:267,_RNCNvMs_NtCs2JPVPr0rmMD_7scoutly6robotsNtB6_9RobotsTxt14get_domain_key0B8_
FN:36,_RNCNvMs_NtCs2JPVPr0rmMD_7scoutly6robotsNtB6_9RobotsTxt5fetch0B8_
FN:144,_RNvMs_NtCscKribofPTlq_7scoutly6robotsNtB4_9RobotsTxt10is_allowed
FN:165,_RNvMs_NtCscKribofPTlq_7scoutly6robotsNtB4_9RobotsTxt11check_rules
FN:185,_RNvMs_NtCscKribofPTlq_7scoutly6robotsNtB4_9RobotsTxt12path_matches
FN:262,_RNvMs_NtCscKribofPTlq_7scoutly6robotsNtB4_9RobotsTxt14get_domain_key
FN:253,_RNvMs_NtCscKribofPTlq_7scoutly6robotsNtB4_9RobotsTxt14get_robots_url
FN:28,_RNvMs_NtCscKribofPTlq_7scoutly6robotsNtB4_9RobotsTxt3new
FN:36,_RNvMs_NtCscKribofPTlq_7scoutly6robotsNtB4_9RobotsTxt5fetch
FN:77,_RNvMs_NtCscKribofPTlq_7scoutly6robotsNtB4_9RobotsTxt5parse
FN:22,_RNvXNtCscKribofPTlq_7scoutly6robotsNtB2_9RobotsTxtNtNtCs35vC3OypZpH_4core7default7Default7default
FN:267,_RNCNvMs_NtCscKribofPTlq_7scoutly6robotsNtB6_9RobotsTxt14get_domain_key0B8_
FN:36,_RNCNvMs_NtCscKribofPTlq_7scoutly6robotsNtB6_9RobotsTxt5fetch0B8_
FN:277,_RNvNtNtCscKribofPTlq_7scoutly6robots5testss_12test_default
FN:381,_RNvNtNtCscKribofPTlq_7scoutly6robots5testss_16test_check_rules
FN:430,_RNvNtNtCscKribofPTlq_7scoutly6robots5testss_19test_get_domain_key
FN:420,_RNvNtNtCscKribofPTlq_7scoutly6robots5testss_19test_get_robots_url
FN:322,_RNvNtNtCscKribofPTlq_7scoutly6robots5testss_21test_parse_robots_txt
FN:284,_RNvNtNtCscKribofPTlq_7scoutly6robots5testss_23test_path_matches_exact
FN:409,_RNvNtNtCscKribofPTlq_7scoutly6robots5testss_24test_cache_functionality
FN:371,_RNvNtNtCscKribofPTlq_7scoutly6robots5testss_24test_is_allowed_no_rules
FN:290,_RNvNtNtCscKribofPTlq_7scoutly6robots5testss_24test_path_matches_prefix
FN:297,_RNvNtNtCscKribofPTlq_7scoutly6robots5testss_26test_path_matches_wildcard
FN:305,_RNvNtNtCscKribofPTlq_7scoutly6robots5testss_28test_path_matches_end_marker
FN:312,_RNvNtNtCscKribofPTlq_7scoutly6robots5testss_34test_path_matches_pattern_consumed
FN:480,_RNvNtNtCscKribofPTlq_7scoutly6robots5testss_34test_path_matches_wildcard_failure
FN:346,_RNvNtNtCscKribofPTlq_7scoutly6robots5testss_40test_is_allowed_with_specific_user_agent
FN:452,_RNvNtNtCscKribofPTlq_7scoutly6robots5testss_40test_parse_robots_txt_with_invalid_lines
FN:493,_RNvNtNtCscKribofPTlq_7scoutly6robots5testss_50test_path_matches_end_marker_with_pattern_consumed
FNDA:12,_RNvMs_NtCs2JPVPr0rmMD_7scoutly6robotsNtB4_9RobotsTxt10is_allowed
FNDA:8,_RNvMs_NtCs2JPVPr0rmMD_7scoutly6robotsNtB4_9RobotsTxt11check_rules
FNDA:32,_RNvMs_NtCs2JPVPr0rmMD_7scoutly6robotsNtB4_9RobotsTxt12path_matches
FNDA:19,_RNvMs_NtCs2JPVPr0rmMD_7scoutly6robotsNtB4_9RobotsTxt14get_domain_key
FNDA:7,_RNvMs_NtCs2JPVPr0rmMD_7scoutly6robotsNtB4_9RobotsTxt14get_robots_url
FNDA:51,_RNvMs_NtCs2JPVPr0rmMD_7scoutly6robotsNtB4_9RobotsTxt3new
FNDA:7,_RNvMs_NtCs2JPVPr0rmMD_7scoutly6robotsNtB4_9RobotsTxt5fetch
FNDA:2,_RNvMs_NtCs2JPVPr0rmMD_7scoutly6robotsNtB4_9RobotsTxt5parse
FNDA:0,_RNvXNtCs2JPVPr0rmMD_7scoutly6robotsNtB2_9RobotsTxtNtNtCs35vC3OypZpH_4core7default7Default7default
FNDA:19,_RNCNvMs_NtCs2JPVPr0rmMD_7scoutly6robotsNtB6_9RobotsTxt14get_domain_key0B8_
FNDA:7,_RNCNvMs_NtCs2JPVPr0rmMD_7scoutly6robotsNtB6_9RobotsTxt5fetch0B8_
FNDA:4,_RNvMs_NtCscKribofPTlq_7scoutly6robotsNtB4_9RobotsTxt10is_allowed
FNDA:7,_RNvMs_NtCscKribofPTlq_7scoutly6robotsNtB4_9RobotsTxt11check_rules
FNDA:87,_RNvMs_NtCscKribofPTlq_7scoutly6robotsNtB4_9RobotsTxt12path_matches
FNDA:8,_RNvMs_NtCscKribofPTlq_7scoutly6robotsNtB4_9RobotsTxt14get_domain_key
FNDA:1,_RNvMs_NtCscKribofPTlq_7scoutly6robotsNtB4_9RobotsTxt14get_robots_url
FNDA:9,_RNvMs_NtCscKribofPTlq_7scoutly6robotsNtB4_9RobotsTxt3new
FNDA:0,_RNvMs_NtCscKribofPTlq_7scoutly6robotsNtB4_9RobotsTxt5fetch
FNDA:3,_RNvMs_NtCscKribofPTlq_7scoutly6robotsNtB4_9RobotsTxt5parse
FNDA:1,_RNvXNtCscKribofPTlq_7scoutly6robotsNtB2_9RobotsTxtNtNtCs35vC3OypZpH_4core7default7Default7default
FNDA:1,_RNCNvMs_NtCscKribofPTlq_7scoutly6robotsNtB6_9RobotsTxt14get_domain_key0B8_
FNDA:0,_RNCNvMs_NtCscKribofPTlq_7scoutly6robotsNtB6_9RobotsTxt5fetch0B8_
FNDA:1,_RNvNtNtCscKribofPTlq_7scoutly6robots5testss_12test_default
FNDA:1,_RNvNtNtCscKribofPTlq_7scoutly6robots5testss_16test_check_rules
FNDA:1,_RNvNtNtCscKribofPTlq_7scoutly6robots5testss_19test_get_domain_key
FNDA:1,_RNvNtNtCscKribofPTlq_7scoutly6robots5testss_19test_get_robots_url
FNDA:1,_RNvNtNtCscKribofPTlq_7scoutly6robots5testss_21test_parse_robots_txt
FNDA:1,_RNvNtNtCscKribofPTlq_7scoutly6robots5testss_23test_path_matches_exact
FNDA:1,_RNvNtNtCscKribofPTlq_7scoutly6robots5testss_24test_cache_functionality
FNDA:1,_RNvNtNtCscKribofPTlq_7scoutly6robots5testss_24test_is_allowed_no_rules
FNDA:1,_RNvNtNtCscKribofPTlq_7scoutly6robots5testss_24test_path_matches_prefix
FNDA:1,_RNvNtNtCscKribofPTlq_7scoutly6robots5testss_26test_path_matches_wildcard
FNDA:1,_RNvNtNtCscKribofPTlq_7scoutly6robots5testss_28test_path_matches_end_marker
FNDA:1,_RNvNtNtCscKribofPTlq_7scoutly6robots5testss_34test_path_matches_pattern_consumed
FNDA:1,_RNvNtNtCscKribofPTlq_7scoutly6robots5testss_34test_path_matches_wildcard_failure
FNDA:1,_RNvNtNtCscKribofPTlq_7scoutly6robots5testss_40test_is_allowed_with_specific_user_agent
FNDA:1,_RNvNtNtCscKribofPTlq_7scoutly6robots5testss_40test_parse_robots_txt_with_invalid_lines
FNDA:1,_RNvNtNtCscKribofPTlq_7scoutly6robots5testss_50test_path_matches_end_marker_with_pattern_consumed
FNF:27
FNH:27
DA:22,1
DA:23,1
DA:24,1
DA:28,60
DA:29,60
DA:30,60
DA:31,60
DA:32,60
DA:33,60
DA:36,7
DA:37,7
DA:38,7
DA:41,7
DA:42,1
DA:43,6
DA:46,6
DA:47,4
DA:50,2
DA:51,2
DA:52,2
DA:53,2
DA:58,4
DA:59,2
DA:61,0
DA:62,0
DA:64,2
DA:65,2
DA:66,2
DA:67,2
DA:69,2
DA:70,2
DA:71,2
DA:73,2
DA:74,7
DA:77,5
DA:78,5
DA:79,5
DA:81,33
DA:82,33
DA:85,33
DA:86,5
DA:87,28
DA:90,28
DA:91,28
DA:92,2
DA:93,26
DA:95,26
DA:96,26
DA:98,26
DA:99,26
DA:101,7
DA:102,4
DA:103,2
DA:104,2
DA:105,2
DA:106,5
DA:109,7
DA:110,7
DA:112,19
DA:113,12
DA:114,12
DA:115,12
DA:116,12
DA:117,12
DA:118,12
DA:120,7
DA:121,5
DA:122,5
DA:123,5
DA:124,5
DA:125,5
DA:126,5
DA:128,2
DA:129,2
DA:130,2
DA:135,5
DA:136,10
DA:137,5
DA:138,5
DA:139,5
DA:140,0
DA:141,5
DA:144,16
DA:145,16
DA:146,16
DA:149,16
DA:150,16
DA:151,3
DA:152,13
DA:155,13
DA:156,13
DA:157,8
DA:158,5
DA:161,5
DA:162,16
DA:165,15
DA:166,15
DA:167,15
DA:170,61
DA:171,46
DA:172,14
DA:174,14
DA:175,14
DA:176,14
DA:177,14
DA:178,32
DA:181,15
DA:182,15
DA:185,119
DA:187,119
DA:188,16
DA:189,103
DA:192,103
DA:193,5
DA:195,98
DA:199,103
DA:200,96
DA:201,96
DA:202,5
DA:203,91
DA:204,91
DA:205,7
DA:208,7
DA:209,7
DA:210,7
DA:211,7
DA:213,42
DA:214,42
DA:217,7
DA:218,2
DA:219,5
DA:222,51
DA:223,51
DA:224,51
DA:225,51
DA:226,51
DA:227,3
DA:228,48
DA:230,2
DA:231,35
DA:232,35
DA:233,35
DA:234,35
DA:235,35
DA:236,35
DA:237,0
DA:242,0
DA:243,0
DA:245,0
DA:246,0
DA:248,0
DA:250,119
DA:253,8
DA:254,8
DA:255,8
DA:256,8
DA:257,8
DA:258,8
DA:259,8
DA:262,27
DA:263,27
DA:264,27
DA:265,27
DA:266,27
DA:267,27
DA:269,27
DA:277,1
DA:278,1
DA:279,1
DA:280,1
DA:281,1
DA:284,1
DA:285,1
DA:286,1
DA:287,1
DA:290,1
DA:291,1
DA:292,1
DA:293,1
DA:294,1
DA:297,1
DA:298,1
DA:299,1
DA:300,1
DA:301,1
DA:302,1
DA:305,1
DA:306,1
DA:307,1
DA:308,1
DA:309,1
DA:312,1
DA:314,1
DA:315,1
DA:318,1
DA:319,1
DA:322,1
DA:323,1
DA:324,1
DA:325,1
DA:326,1
DA:327,1
DA:328,1
DA:329,1
DA:330,1
DA:331,1
DA:333,1
DA:334,1
DA:337,1
DA:338,1
DA:341,1
DA:342,1
DA:343,1
DA:346,1
DA:347,1
DA:348,1
DA:349,1
DA:350,1
DA:351,1
DA:353,1
DA:354,1
DA:356,1
DA:357,1
DA:358,1
DA:361,1
DA:364,1
DA:367,1
DA:368,1
DA:371,1
DA:372,1
DA:374,1
DA:377,1
DA:378,1
DA:381,1
DA:382,1
DA:383,1
DA:384,1
DA:385,1
DA:386,1
DA:387,1
DA:388,1
DA:389,1
DA:390,1
DA:393,1
DA:396,1
DA:399,1
DA:402,1
DA:405,1
DA:406,1
DA:409,1
DA:410,1
DA:413,1
DA:416,1
DA:417,1
DA:420,1
DA:421,1
DA:422,1
DA:424,1
DA:426,1
DA:427,1
DA:430,1
DA:431,1
DA:434,1
DA:435,1
DA:438,1
DA:439,1
DA:442,1
DA:444,1
DA:447,1
DA:448,1
DA:449,1
DA:452,1
DA:454,1
DA:455,1
DA:456,1
DA:457,1
DA:458,1
DA:459,1
DA:460,1
DA:461,1
DA:462,1
DA:463,1
DA:464,1
DA:465,1
DA:467,1
DA:468,1
DA:471,1
DA:472,1
DA:475,1
DA:476,1
DA:477,1
DA:480,1
DA:482,1
DA:483,1
DA:484,1
DA:485,1
DA:486,1
DA:489,1
DA:490,1
DA:493,1
DA:495,1
DA:496,1
DA:499,1
DA:500,1
DA:501,1
BRF:0
BRH:0
LF:307
LH:297
end_of_record
SF:/home/user/scoutly/src/seo_analyzer.rs
FN:18,_RNvMNtCs2JPVPr0rmMD_7scoutly12seo_analyzerNtB2_11SeoAnalyzer12analyze_page
FN:7,_RNvMNtCs2JPVPr0rmMD_7scoutly12seo_analyzerNtB2_11SeoAnalyzer13analyze_pages
FN:95,_RNCNvMNtCs2JPVPr0rmMD_7scoutly12seo_analyzerNtB4_11SeoAnalyzer12analyze_page0B6_
FN:18,_RNvMNtCscKribofPTlq_7scoutly12seo_analyzerNtB2_11SeoAnalyzer12analyze_page
FN:7,_RNvMNtCscKribofPTlq_7scoutly12seo_analyzerNtB2_11SeoAnalyzer13analyze_pages
FN:95,_RNCNvMNtCscKribofPTlq_7scoutly12seo_analyzerNtB4_11SeoAnalyzer12analyze_page0B6_
FNDA:111,_RNvMNtCs2JPVPr0rmMD_7scoutly12seo_analyzerNtB2_11SeoAnalyzer12analyze_page
FNDA:18,_RNvMNtCs2JPVPr0rmMD_7scoutly12seo_analyzerNtB2_11SeoAnalyzer13analyze_pages
FNDA:22,_RNCNvMNtCs2JPVPr0rmMD_7scoutly12seo_analyzerNtB4_11SeoAnalyzer12analyze_page0B6_
FNDA:0,_RNvMNtCscKribofPTlq_7scoutly12seo_analyzerNtB2_11SeoAnalyzer12analyze_page
FNDA:0,_RNvMNtCscKribofPTlq_7scoutly12seo_analyzerNtB2_11SeoAnalyzer13analyze_pages
FNDA:0,_RNCNvMNtCscKribofPTlq_7scoutly12seo_analyzerNtB4_11SeoAnalyzer12analyze_page0B6_
FNF:3
FNH:3
DA:7,18
DA:8,125
DA:10,125
DA:11,111
DA:12,111
DA:13,111
DA:14,111
DA:16,18
DA:18,111
DA:20,111
DA:21,63
DA:22,63
DA:23,63
DA:24,63
DA:25,63
DA:26,63
DA:28,48
DA:29,37
DA:30,37
DA:31,37
DA:32,37
DA:33,37
DA:34,37
DA:35,37
DA:36,37
DA:37,37
DA:38,11
DA:39,11
DA:40,11
DA:41,11
DA:42,11
DA:43,11
DA:44,11
DA:45,11
DA:46,11
DA:47,0
DA:50,111
DA:51,52
DA:52,52
DA:53,52
DA:54,52
DA:55,52
DA:56,59
DA:58,59
DA:59,41
DA:60,41
DA:61,41
DA:62,41
DA:63,41
DA:64,41
DA:65,41
DA:66,41
DA:67,41
DA:68,18
DA:69,18
DA:70,18
DA:71,18
DA:72,18
DA:73,18
DA:74,18
DA:75,18
DA:76,18
DA:77,0
DA:80,111
DA:81,46
DA:82,46
DA:83,46
DA:84,46
DA:85,46
DA:86,65
DA:87,2
DA:88,2
DA:89,2
DA:90,2
DA:91,2
DA:92,63
DA:95,111
DA:96,111
DA:97,10
DA:98,10
DA:99,10
DA:100,10
DA:101,10
DA:102,101
DA:105,111
DA:106,111
DA:107,92
DA:108,92
DA:109,92
DA:110,92
DA:111,92
DA:112,92
DA:115,111
DA:116,1
DA:117,110
DA:118,110
DA:119,110
DA:120,110
DA:121,110
DA:122,110
DA:123,110
DA:125,111
DA:126,1
DA:127,110
DA:128,110
DA:129,110
DA:130,110
DA:131,110
DA:132,110
DA:133,110
DA:135,111
DA:136,1
DA:137,110
DA:138,110
DA:139,110
DA:140,110
DA:141,110
DA:142,110
DA:143,110
DA:145,111
DA:146,110
DA:147,110
DA:148,110
DA:149,110
DA:150,110
DA:151,110
DA:153,111
DA:154,110
DA:155,110
DA:156,110
DA:157,110
DA:158,110
DA:159,110
DA:160,110
DA:161,111
BRF:0
BRH:0
LF:136
LH:134
end_of_record